target datalayout = "e-m:e-p270:32:32-p271:32:32-p272:64:64-i64:64-i128:128-f80:128-n8:16:32:64-S128"
target triple = "x86_64-pc-linux-gnu"

@crc32c_once_big = internal global i32 0, align 4
@crc32c_table_big_byte = internal global [256 x i32] zeroinitializer, align 16
@crc32c_table_big = internal global [8 x [256 x i64]] zeroinitializer, align 16

; Function Attrs: nounwind uwtable
define dso_local i32 @crc32c_sw_big(i32 noundef %0, ptr noundef %1, i64 noundef %2) #0 {
  %4 = alloca i32, align 4
  %5 = alloca ptr, align 8
  %6 = alloca i64, align 8
  %7 = alloca ptr, align 8
  %8 = alloca i64, align 8
  store i32 %0, ptr %4, align 4, !tbaa !4
  store ptr %1, ptr %5, align 8, !tbaa !9
  store i64 %2, ptr %6, align 8, !tbaa !11
  call void @llvm.lifetime.start.p0(i64 8, ptr %7) #5
  %9 = load ptr, ptr %5, align 8, !tbaa !9
  store ptr %9, ptr %7, align 8, !tbaa !13
  %10 = call i32 @pthread_once(ptr noundef @crc32c_once_big, ptr noundef @crc32c_init_sw_big)
  %11 = load i32, ptr %4, align 4, !tbaa !4
  %12 = xor i32 %11, -1
  store i32 %12, ptr %4, align 4, !tbaa !4
  br label %13

13:                                               ; preds = %23, %3
  %14 = load i64, ptr %6, align 8, !tbaa !11
  %15 = icmp ne i64 %14, 0
  br i1 %15, label %16, label %21

16:                                               ; preds = %13
  %17 = load ptr, ptr %7, align 8, !tbaa !13
  %18 = ptrtoint ptr %17 to i64
  %19 = and i64 %18, 7
  %20 = icmp ne i64 %19, 0
  br label %21

21:                                               ; preds = %16, %13
  %22 = phi i1 [ false, %13 ], [ %20, %16 ]
  br i1 %22, label %23, label %39

23:                                               ; preds = %21
  %24 = load i32, ptr %4, align 4, !tbaa !4
  %25 = load ptr, ptr %7, align 8, !tbaa !13
  %26 = getelementptr inbounds nuw i8, ptr %25, i32 1
  store ptr %26, ptr %7, align 8, !tbaa !13
  %27 = load i8, ptr %25, align 1, !tbaa !28
  %28 = zext i8 %27 to i32
  %29 = xor i32 %24, %28
  %30 = and i32 %29, 255
  %31 = zext i32 %30 to i64
  %32 = getelementptr inbounds nuw [256 x i32], ptr @crc32c_table_big_byte, i64 0, i64 %31
  %33 = load i32, ptr %32, align 4, !tbaa !4
  %34 = load i32, ptr %4, align 4, !tbaa !4
  %35 = lshr i32 %34, 8
  %36 = xor i32 %33, %35
  store i32 %36, ptr %4, align 4, !tbaa !4
  %37 = load i64, ptr %6, align 8, !tbaa !11
  %38 = add i64 %37, -1
  store i64 %38, ptr %6, align 8, !tbaa !11
  br label %13, !llvm.loop !35

39:                                               ; preds = %21
  %40 = load i64, ptr %6, align 8, !tbaa !11
  %41 = icmp uge i64 %40, 8
  br i1 %41, label %42, label %107

42:                                               ; preds = %39
  call void @llvm.lifetime.start.p0(i64 8, ptr %8) #5
  %43 = load i32, ptr %4, align 4, !tbaa !4
  %44 = zext i32 %43 to i64
  %45 = call i64 @llvm.bswap.i64(i64 %44)
  store i64 %45, ptr %8, align 8, !tbaa !11
  br label %46

46:                                               ; preds = %100, %42
  %47 = load ptr, ptr %7, align 8, !tbaa !13
  %48 = load i64, ptr %47, align 8, !tbaa !11
  %49 = load i64, ptr %8, align 8, !tbaa !11
  %50 = xor i64 %49, %48
  store i64 %50, ptr %8, align 8, !tbaa !11
  %51 = load i64, ptr %8, align 8, !tbaa !11
  %52 = and i64 %51, 255
  %53 = getelementptr inbounds nuw [256 x i64], ptr @crc32c_table_big, i64 0, i64 %52
  %54 = load i64, ptr %53, align 8, !tbaa !11
  %55 = load i64, ptr %8, align 8, !tbaa !11
  %56 = lshr i64 %55, 8
  %57 = and i64 %56, 255
  %58 = getelementptr inbounds nuw [256 x i64], ptr getelementptr inbounds ([8 x [256 x i64]], ptr @crc32c_table_big, i64 0, i64 1), i64 0, i64 %57
  %59 = load i64, ptr %58, align 8, !tbaa !11
  %60 = xor i64 %54, %59
  %61 = load i64, ptr %8, align 8, !tbaa !11
  %62 = lshr i64 %61, 16
  %63 = and i64 %62, 255
  %64 = getelementptr inbounds nuw [256 x i64], ptr getelementptr inbounds ([8 x [256 x i64]], ptr @crc32c_table_big, i64 0, i64 2), i64 0, i64 %63
  %65 = load i64, ptr %64, align 8, !tbaa !11
  %66 = xor i64 %60, %65
  %67 = load i64, ptr %8, align 8, !tbaa !11
  %68 = lshr i64 %67, 24
  %69 = and i64 %68, 255
  %70 = getelementptr inbounds nuw [256 x i64], ptr getelementptr inbounds ([8 x [256 x i64]], ptr @crc32c_table_big, i64 0, i64 3), i64 0, i64 %69
  %71 = load i64, ptr %70, align 8, !tbaa !11
  %72 = xor i64 %66, %71
  %73 = load i64, ptr %8, align 8, !tbaa !11
  %74 = lshr i64 %73, 32
  %75 = and i64 %74, 255
  %76 = getelementptr inbounds nuw [256 x i64], ptr getelementptr inbounds ([8 x [256 x i64]], ptr @crc32c_table_big, i64 0, i64 4), i64 0, i64 %75
  %77 = load i64, ptr %76, align 8, !tbaa !11
  %78 = xor i64 %72, %77
  %79 = load i64, ptr %8, align 8, !tbaa !11
  %80 = lshr i64 %79, 40
  %81 = and i64 %80, 255
  %82 = getelementptr inbounds nuw [256 x i64], ptr getelementptr inbounds ([8 x [256 x i64]], ptr @crc32c_table_big, i64 0, i64 5), i64 0, i64 %81
  %83 = load i64, ptr %82, align 8, !tbaa !11
  %84 = xor i64 %78, %83
  %85 = load i64, ptr %8, align 8, !tbaa !11
  %86 = lshr i64 %85, 48
  %87 = and i64 %86, 255
  %88 = getelementptr inbounds nuw [256 x i64], ptr getelementptr inbounds ([8 x [256 x i64]], ptr @crc32c_table_big, i64 0, i64 6), i64 0, i64 %87
  %89 = load i64, ptr %88, align 8, !tbaa !11
  %90 = xor i64 %84, %89
  %91 = load i64, ptr %8, align 8, !tbaa !11
  %92 = lshr i64 %91, 56
  %93 = getelementptr inbounds nuw [256 x i64], ptr getelementptr inbounds ([8 x [256 x i64]], ptr @crc32c_table_big, i64 0, i64 7), i64 0, i64 %92
  %94 = load i64, ptr %93, align 8, !tbaa !11
  %95 = xor i64 %90, %94
  store i64 %95, ptr %8, align 8, !tbaa !11
  %96 = load ptr, ptr %7, align 8, !tbaa !13
  %97 = getelementptr inbounds i8, ptr %96, i64 8
  store ptr %97, ptr %7, align 8, !tbaa !13
  %98 = load i64, ptr %6, align 8, !tbaa !11
  %99 = sub i64 %98, 8
  store i64 %99, ptr %6, align 8, !tbaa !11
  br label %100

100:                                              ; preds = %46
  %101 = load i64, ptr %6, align 8, !tbaa !11
  %102 = icmp uge i64 %101, 8
  br i1 %102, label %46, label %103, !llvm.loop !36

103:                                              ; preds = %100
  %104 = load i64, ptr %8, align 8, !tbaa !11
  %105 = call i64 @llvm.bswap.i64(i64 %104)
  %106 = trunc i64 %105 to i32
  store i32 %106, ptr %4, align 4, !tbaa !4
  call void @llvm.lifetime.end.p0(i64 8, ptr %8) #5
  br label %107

107:                                              ; preds = %103, %39
  br label %108

108:                                              ; preds = %111, %107
  %109 = load i64, ptr %6, align 8, !tbaa !11
  %110 = icmp ne i64 %109, 0
  br i1 %110, label %111, label %127

111:                                              ; preds = %108
  %112 = load i32, ptr %4, align 4, !tbaa !4
  %113 = load ptr, ptr %7, align 8, !tbaa !13
  %114 = getelementptr inbounds nuw i8, ptr %113, i32 1
  store ptr %114, ptr %7, align 8, !tbaa !13
  %115 = load i8, ptr %113, align 1, !tbaa !28
  %116 = zext i8 %115 to i32
  %117 = xor i32 %112, %116
  %118 = and i32 %117, 255
  %119 = zext i32 %118 to i64
  %120 = getelementptr inbounds nuw [256 x i32], ptr @crc32c_table_big_byte, i64 0, i64 %119
  %121 = load i32, ptr %120, align 4, !tbaa !4
  %122 = load i32, ptr %4, align 4, !tbaa !4
  %123 = lshr i32 %122, 8
  %124 = xor i32 %121, %123
  store i32 %124, ptr %4, align 4, !tbaa !4
  %125 = load i64, ptr %6, align 8, !tbaa !11
  %126 = add i64 %125, -1
  store i64 %126, ptr %6, align 8, !tbaa !11
  br label %108, !llvm.loop !37

127:                                              ; preds = %108
  %128 = load i32, ptr %4, align 4, !tbaa !4
  %129 = xor i32 %128, -1
  call void @llvm.lifetime.end.p0(i64 8, ptr %7) #5
  ret i32 %129
}