; Function Attrs: nounwind uwtable
define dso_local i32 @crc32c_sw_big(i32 noundef %0, ptr noundef %1, i64 noundef %2) local_unnamed_addr #2 {
  %4 = tail call i32 @pthread_once(ptr noundef nonnull @crc32c_once_big, ptr noundef nonnull @crc32c_init_sw_big) #10
  %5 = xor i32 %0, -1
  %6 = icmp ne i64 %2, 0
  %7 = ptrtoint ptr %1 to i64
  %8 = and i64 %7, 7
  %9 = icmp ne i64 %8, 0
  %10 = and i1 %6, %9
  br i1 %10, label %.lr.ph, label %._crit_edge

.lr.ph:                                           ; preds = %3, %.lr.ph
  %.02943 = phi ptr [ %11, %.lr.ph ], [ %1, %3 ]
  %.03042 = phi i64 [ %18, %.lr.ph ], [ %2, %3 ]
  %.03441 = phi i32 [ %17, %.lr.ph ], [ %5, %3 ]
  %11 = getelementptr inbounds nuw i8, ptr %.02943, i64 1
  %12 = load i8, ptr %.02943, align 1, !tbaa !24
  %.034.tr = trunc i32 %.03441 to i8
  %.narrow38 = xor i8 %12, %.034.tr
  %13 = zext i8 %.narrow38 to i64
  %14 = getelementptr inbounds nuw [256 x i32], ptr @crc32c_table_big_byte, i64 0, i64 %13
  %15 = load i32, ptr %14, align 4, !tbaa !14
  %16 = lshr i32 %.03441, 8
  %17 = xor i32 %15, %16
  %18 = add i64 %.03042, -1
  %19 = icmp ne i64 %18, 0
  %20 = ptrtoint ptr %11 to i64
  %21 = and i64 %20, 7
  %22 = icmp ne i64 %21, 0
  %23 = select i1 %19, i1 %22, i1 false
  br i1 %23, label %.lr.ph, label %._crit_edge, !llvm.loop !33

._crit_edge:                                      ; preds = %.lr.ph, %3
  %.034.lcssa = phi i32 [ %5, %3 ], [ %17, %.lr.ph ]
  %.030.lcssa = phi i64 [ %2, %3 ], [ %18, %.lr.ph ]
  %.029.lcssa = phi ptr [ %1, %3 ], [ %11, %.lr.ph ]
  %24 = icmp ugt i64 %.030.lcssa, 7
  br i1 %24, label %25, label %74

25:                                               ; preds = %._crit_edge
  %26 = zext i32 %.034.lcssa to i64
  %27 = tail call i64 @llvm.bswap.i64(i64 %26)
  br label %28

28:                                               ; preds = %28, %25
  %.232 = phi i64 [ %.030.lcssa, %25 ], [ %69, %28 ]
  %.2 = phi ptr [ %.029.lcssa, %25 ], [ %68, %28 ]
  %.0 = phi i64 [ %27, %25 ], [ %67, %28 ]
  %29 = load i64, ptr %.2, align 8, !tbaa !26
  %30 = xor i64 %29, %.0
  %31 = and i64 %30, 255
  %32 = getelementptr inbounds nuw [256 x i64], ptr @crc32c_table_big, i64 0, i64 %31
  %33 = load i64, ptr %32, align 8, !tbaa !26
  %34 = lshr i64 %30, 8
  %35 = and i64 %34, 255
  %36 = getelementptr inbounds nuw [256 x i64], ptr getelementptr inbounds nuw (i8, ptr @crc32c_table_big, i64 2048), i64 0, i64 %35
  %37 = load i64, ptr %36, align 8, !tbaa !26
  %38 = xor i64 %37, %33
  %39 = lshr i64 %30, 16
  %40 = and i64 %39, 255
  %41 = getelementptr inbounds nuw [256 x i64], ptr getelementptr inbounds nuw (i8, ptr @crc32c_table_big, i64 4096), i64 0, i64 %40
  %42 = load i64, ptr %41, align 8, !tbaa !26
  %43 = xor i64 %38, %42
  %44 = lshr i64 %30, 24
  %45 = and i64 %44, 255
  %46 = getelementptr inbounds nuw [256 x i64], ptr getelementptr inbounds nuw (i8, ptr @crc32c_table_big, i64 6144), i64 0, i64 %45
  %47 = load i64, ptr %46, align 8, !tbaa !26
  %48 = xor i64 %43, %47
  %49 = lshr i64 %30, 32
  %50 = and i64 %49, 255
  %51 = getelementptr inbounds nuw [256 x i64], ptr getelementptr inbounds nuw (i8, ptr @crc32c_table_big, i64 8192), i64 0, i64 %50
  %52 = load i64, ptr %51, align 8, !tbaa !26
  %53 = xor i64 %48, %52
  %54 = lshr i64 %30, 40
  %55 = and i64 %54, 255
  %56 = getelementptr inbounds nuw [256 x i64], ptr getelementptr inbounds nuw (i8, ptr @crc32c_table_big, i64 10240), i64 0, i64 %55
  %57 = load i64, ptr %56, align 8, !tbaa !26
  %58 = xor i64 %53, %57
  %59 = lshr i64 %30, 48
  %60 = and i64 %59, 255
  %61 = getelementptr inbounds nuw [256 x i64], ptr getelementptr inbounds nuw (i8, ptr @crc32c_table_big, i64 12288), i64 0, i64 %60
  %62 = load i64, ptr %61, align 8, !tbaa !26
  %63 = xor i64 %58, %62
  %64 = lshr i64 %30, 56
  %65 = getelementptr inbounds nuw [256 x i64], ptr getelementptr inbounds nuw (i8, ptr @crc32c_table_big, i64 14336), i64 0, i64 %64
  %66 = load i64, ptr %65, align 8, !tbaa !26
  %67 = xor i64 %63, %66
  %68 = getelementptr inbounds nuw i8, ptr %.2, i64 8
  %69 = add i64 %.232, -8
  %70 = icmp ugt i64 %69, 7
  br i1 %70, label %28, label %71, !llvm.loop !34

71:                                               ; preds = %28
  %72 = tail call i64 @llvm.bswap.i64(i64 %67)
  %73 = trunc i64 %72 to i32
  br label %74

74:                                               ; preds = %71, %._crit_edge
  %.135 = phi i32 [ %73, %71 ], [ %.034.lcssa, %._crit_edge ]
  %.131 = phi i64 [ %69, %71 ], [ %.030.lcssa, %._crit_edge ]
  %.1 = phi ptr [ %68, %71 ], [ %.029.lcssa, %._crit_edge ]
  %.not46 = icmp eq i64 %.131, 0
  br i1 %.not46, label %._crit_edge52, label %.lr.ph51

.lr.ph51:                                         ; preds = %74, %.lr.ph51
  %.349 = phi ptr [ %75, %.lr.ph51 ], [ %.1, %74 ]
  %.33348 = phi i64 [ %82, %.lr.ph51 ], [ %.131, %74 ]
  %.23647 = phi i32 [ %81, %.lr.ph51 ], [ %.135, %74 ]
  %75 = getelementptr inbounds nuw i8, ptr %.349, i64 1
  %76 = load i8, ptr %.349, align 1, !tbaa !24
  %.236.tr = trunc i32 %.23647 to i8
  %.narrow = xor i8 %76, %.236.tr
  %77 = zext i8 %.narrow to i64
  %78 = getelementptr inbounds nuw [256 x i32], ptr @crc32c_table_big_byte, i64 0, i64 %77
  %79 = load i32, ptr %78, align 4, !tbaa !14
  %80 = lshr i32 %.23647, 8
  %81 = xor i32 %79, %80
  %82 = add nsw i64 %.33348, -1
  %.not = icmp eq i64 %82, 0
  br i1 %.not, label %._crit_edge52, label %.lr.ph51, !llvm.loop !35

._crit_edge52:                                    ; preds = %.lr.ph51, %74
  %.236.lcssa = phi i32 [ %.135, %74 ], [ %81, %.lr.ph51 ]
  %83 = xor i32 %.236.lcssa, -1
  ret i32 %83
}